; Function Attrs: mustprogress nofree nounwind uwtable
define dso_local void @_ZN30btGeneric6DofSpring2Constraint19calculateTransformsEv(ptr noundef nonnull align 8 dereferenceable(1484) %this) local_unnamed_addr #3 align 2 {
entry:
  %m_rbA = getelementptr inbounds i8, ptr %this, i64 40
  %0 = load ptr, ptr %m_rbA, align 8
  %m_worldTransform.i = getelementptr inbounds i8, ptr %0, i64 8
  %m_rbB = getelementptr inbounds i8, ptr %this, i64 48
  %1 = load ptr, ptr %m_rbB, align 8
  %m_worldTransform.i1 = getelementptr inbounds i8, ptr %1, i64 8
  tail call void @_ZN30btGeneric6DofSpring2Constraint19calculateTransformsERK11btTransformS2_(ptr noundef nonnull align 8 dereferenceable(1484) %this, ptr noundef nonnull align 4 dereferenceable(64) %m_worldTransform.i, ptr noundef nonnull align 4 dereferenceable(64) %m_worldTransform.i1)
  ret void
}